; Function Attrs: mustprogress uwtable
define void @_ZN2cv7GScalarC2Ed(ptr noundef nonnull writeonly align 8 captures(none) dereferenceable(16) %0, double noundef %1) unnamed_addr #3 align 2 personality ptr @__gxx_personality_v0 {
  %3 = alloca %"class.cv::util::variant", align 8
  %4 = tail call noalias noundef nonnull dereferenceable(184) ptr @_Znwm(i64 noundef 184) #17
  store i64 1, ptr %3, align 8, !tbaa !27
  %5 = getelementptr inbounds nuw i8, ptr %3, i64 8
  store double %1, ptr %5, align 8, !tbaa !29
  %6 = getelementptr inbounds nuw i8, ptr %3, i64 16
  call void @llvm.memset.p0.i64(ptr noundef nonnull align 8 dereferenceable(24) %6, i8 0, i64 24, i1 false)
  invoke void @_ZN2cv7GOriginC1ENS_6GShapeENS_4util7variantIJNS2_9monostateENS_7Scalar_IdEENS_6detail9VectorRefENS_3MatEEEE(ptr noundef nonnull align 8 dereferenceable(180) %4, i32 noundef 1, ptr noundef nonnull %3)
          to label %7 unwind label %30

7:                                                ; preds = %2
  store ptr %4, ptr %0, align 8, !tbaa !8
  %8 = getelementptr inbounds nuw i8, ptr %0, i64 8
  store ptr null, ptr %8, align 8, !tbaa !14
  %9 = invoke noalias noundef nonnull dereferenceable(24) ptr @_Znwm(i64 noundef 24) #17
          to label %20 unwind label %10

10:                                               ; preds = %7
  %11 = landingpad { ptr, i32 }
          catch ptr null
  %12 = extractvalue { ptr, i32 } %11, 0
  %13 = call ptr @__cxa_begin_catch(ptr %12) #18
  call void @_ZN2cv7GOriginD2Ev(ptr noundef nonnull align 8 dereferenceable(180) %4) #18
  call void @_ZdlPv(ptr noundef nonnull %4) #19
  invoke void @__cxa_rethrow() #20
          to label %19 unwind label %14

14:                                               ; preds = %10
  %15 = landingpad { ptr, i32 }
          cleanup
  invoke void @__cxa_end_catch()
          to label %.body unwind label %16

16:                                               ; preds = %14
  %17 = landingpad { ptr, i32 }
          catch ptr null
  %18 = extractvalue { ptr, i32 } %17, 0
  call void @__clang_call_terminate(ptr %18) #21
  unreachable

19:                                               ; preds = %10
  unreachable

20:                                               ; preds = %7
  %21 = getelementptr inbounds nuw i8, ptr %9, i64 8
  store i32 1, ptr %21, align 8, !tbaa !15
  %22 = getelementptr inbounds nuw i8, ptr %9, i64 12
  store i32 1, ptr %22, align 4, !tbaa !18
  store ptr getelementptr inbounds nuw inrange(-16, 40) (i8, ptr @_ZTVSt15_Sp_counted_ptrIPN2cv7GOriginELN9__gnu_cxx12_Lock_policyE2EE, i64 16), ptr %9, align 8, !tbaa !19
  %23 = getelementptr inbounds nuw i8, ptr %9, i64 16
  store ptr %4, ptr %23, align 8, !tbaa !21
  store ptr %9, ptr %8, align 8, !tbaa !14
  %24 = load i64, ptr %3, align 8, !tbaa !27
  %25 = getelementptr inbounds nuw [4 x ptr], ptr @constinit.2, i64 0, i64 %24
  %26 = load ptr, ptr %25, align 8, !tbaa !23
  invoke void %26(ptr noundef nonnull %5)
          to label %_ZN2cv4util7variantIJNS0_9monostateENS_7Scalar_IdEENS_6detail9VectorRefENS_3MatEEED2Ev.exit unwind label %27

27:                                               ; preds = %20
  %28 = landingpad { ptr, i32 }
          catch ptr null
  %29 = extractvalue { ptr, i32 } %28, 0
  call void @__clang_call_terminate(ptr %29) #21
  unreachable

_ZN2cv4util7variantIJNS0_9monostateENS_7Scalar_IdEENS_6detail9VectorRefENS_3MatEEED2Ev.exit: ; preds = %20
  ret void

30:                                               ; preds = %2
  %31 = landingpad { ptr, i32 }
          cleanup
  br label %.body

.body:                                            ; preds = %14, %30
  %.0.lpad-body = phi i1 [ true, %30 ], [ false, %14 ]
  %eh.lpad-body = phi { ptr, i32 } [ %31, %30 ], [ %15, %14 ]
  %32 = load i64, ptr %3, align 8, !tbaa !27
  %33 = getelementptr inbounds nuw [4 x ptr], ptr @constinit.2, i64 0, i64 %32
  %34 = load ptr, ptr %33, align 8, !tbaa !23
  invoke void %34(ptr noundef nonnull %5)
          to label %_ZN2cv4util7variantIJNS0_9monostateENS_7Scalar_IdEENS_6detail9VectorRefENS_3MatEEED2Ev.exit7 unwind label %35

35:                                               ; preds = %.body
  %36 = landingpad { ptr, i32 }
          catch ptr null
  %37 = extractvalue { ptr, i32 } %36, 0
  call void @__clang_call_terminate(ptr %37) #21
  unreachable

_ZN2cv4util7variantIJNS0_9monostateENS_7Scalar_IdEENS_6detail9VectorRefENS_3MatEEED2Ev.exit7: ; preds = %.body
  br i1 %.0.lpad-body, label %38, label %39

38:                                               ; preds = %_ZN2cv4util7variantIJNS0_9monostateENS_7Scalar_IdEENS_6detail9VectorRefENS_3MatEEED2Ev.exit7
  call void @_ZdlPv(ptr noundef nonnull %4) #19
  br label %39

39:                                               ; preds = %_ZN2cv4util7variantIJNS0_9monostateENS_7Scalar_IdEENS_6detail9VectorRefENS_3MatEEED2Ev.exit7, %38
  resume { ptr, i32 } %eh.lpad-body
}